target datalayout = "e-m:e-p270:32:32-p271:32:32-p272:64:64-i64:64-i128:128-f80:128-n8:16:32:64-S128"
target triple = "x86_64-pc-linux-gnu"

%struct.ossl_param_st = type { ptr, i32, ptr, i64, i64 }
%struct.object_st = type { i32, double, ptr, ptr, i64, [256 x i8], i64, ptr, i64 }

@.str.3 = private unnamed_addr constant [30 x i8] c"../openssl/test/params_test.c\00", align 1
@.str.9 = private unnamed_addr constant [3 x i8] c"p1\00", align 1
@.str.10 = private unnamed_addr constant [3 x i8] c"p2\00", align 1
@.str.11 = private unnamed_addr constant [3 x i8] c"p3\00", align 1
@.str.12 = private unnamed_addr constant [62 x i8] c"obj->p3 = BN_native2bn(params->data, params->data_size, NULL)\00", align 1
@.str.13 = private unnamed_addr constant [3 x i8] c"p4\00", align 1
@.str.14 = private unnamed_addr constant [59 x i8] c"obj->p4 = OPENSSL_strndup(params->data, params->data_size)\00", align 1
@.str.15 = private unnamed_addr constant [3 x i8] c"p5\00", align 1
@.str.16 = private unnamed_addr constant [12 x i8] c"data_length\00", align 1
@.str.17 = private unnamed_addr constant [16 x i8] c"sizeof(obj->p5)\00", align 1
@.str.18 = private unnamed_addr constant [3 x i8] c"p6\00", align 1

; Function Attrs: nounwind uwtable
define internal i32 @raw_set_params(ptr noundef %0, ptr noundef %1) #0 {
  %3 = alloca i32, align 4
  %4 = alloca ptr, align 8
  %5 = alloca ptr, align 8
  %6 = alloca ptr, align 8
  %7 = alloca i32, align 4
  %8 = alloca i64, align 8
  store ptr %0, ptr %4, align 8, !tbaa !24
  store ptr %1, ptr %5, align 8, !tbaa !20
  call void @llvm.lifetime.start.p0(i64 8, ptr %6) #7
  %9 = load ptr, ptr %4, align 8, !tbaa !24
  store ptr %9, ptr %6, align 8, !tbaa !35
  br label %10

10:                                               ; preds = %158, %2
  %11 = load ptr, ptr %5, align 8, !tbaa !20
  %12 = getelementptr inbounds nuw %struct.ossl_param_st, ptr %11, i32 0, i32 0
  %13 = load ptr, ptr %12, align 8, !tbaa !43
  %14 = icmp ne ptr %13, null
  br i1 %14, label %15, label %161

15:                                               ; preds = %10
  %16 = load ptr, ptr %5, align 8, !tbaa !20
  %17 = getelementptr inbounds nuw %struct.ossl_param_st, ptr %16, i32 0, i32 0
  %18 = load ptr, ptr %17, align 8, !tbaa !43
  %19 = call i32 @strcmp(ptr noundef %18, ptr noundef @.str.9) #8
  %20 = icmp eq i32 %19, 0
  br i1 %20, label %21, label %28

21:                                               ; preds = %15
  %22 = load ptr, ptr %5, align 8, !tbaa !20
  %23 = getelementptr inbounds nuw %struct.ossl_param_st, ptr %22, i32 0, i32 2
  %24 = load ptr, ptr %23, align 8, !tbaa !44
  %25 = load i32, ptr %24, align 4, !tbaa !4
  %26 = load ptr, ptr %6, align 8, !tbaa !35
  %27 = getelementptr inbounds nuw %struct.object_st, ptr %26, i32 0, i32 0
  store i32 %25, ptr %27, align 8, !tbaa !37
  br label %157

28:                                               ; preds = %15
  %29 = load ptr, ptr %5, align 8, !tbaa !20
  %30 = getelementptr inbounds nuw %struct.ossl_param_st, ptr %29, i32 0, i32 0
  %31 = load ptr, ptr %30, align 8, !tbaa !43
  %32 = call i32 @strcmp(ptr noundef %31, ptr noundef @.str.10) #8
  %33 = icmp eq i32 %32, 0
  br i1 %33, label %34, label %41

34:                                               ; preds = %28
  %35 = load ptr, ptr %5, align 8, !tbaa !20
  %36 = getelementptr inbounds nuw %struct.ossl_param_st, ptr %35, i32 0, i32 2
  %37 = load ptr, ptr %36, align 8, !tbaa !44
  %38 = load double, ptr %37, align 8, !tbaa !27
  %39 = load ptr, ptr %6, align 8, !tbaa !35
  %40 = getelementptr inbounds nuw %struct.object_st, ptr %39, i32 0, i32 1
  store double %38, ptr %40, align 8, !tbaa !39
  br label %156

41:                                               ; preds = %28
  %42 = load ptr, ptr %5, align 8, !tbaa !20
  %43 = getelementptr inbounds nuw %struct.ossl_param_st, ptr %42, i32 0, i32 0
  %44 = load ptr, ptr %43, align 8, !tbaa !43
  %45 = call i32 @strcmp(ptr noundef %44, ptr noundef @.str.11) #8
  %46 = icmp eq i32 %45, 0
  br i1 %46, label %47, label %65

47:                                               ; preds = %41
  %48 = load ptr, ptr %6, align 8, !tbaa !35
  %49 = getelementptr inbounds nuw %struct.object_st, ptr %48, i32 0, i32 2
  %50 = load ptr, ptr %49, align 8, !tbaa !40
  call void @BN_free(ptr noundef %50)
  %51 = load ptr, ptr %5, align 8, !tbaa !20
  %52 = getelementptr inbounds nuw %struct.ossl_param_st, ptr %51, i32 0, i32 2
  %53 = load ptr, ptr %52, align 8, !tbaa !44
  %54 = load ptr, ptr %5, align 8, !tbaa !20
  %55 = getelementptr inbounds nuw %struct.ossl_param_st, ptr %54, i32 0, i32 3
  %56 = load i64, ptr %55, align 8, !tbaa !45
  %57 = trunc i64 %56 to i32
  %58 = call ptr @BN_native2bn(ptr noundef %53, i32 noundef %57, ptr noundef null)
  %59 = load ptr, ptr %6, align 8, !tbaa !35
  %60 = getelementptr inbounds nuw %struct.object_st, ptr %59, i32 0, i32 2
  store ptr %58, ptr %60, align 8, !tbaa !40
  %61 = call i32 @test_ptr(ptr noundef @.str.3, i32 noundef 142, ptr noundef @.str.12, ptr noundef %58)
  %62 = icmp ne i32 %61, 0
  br i1 %62, label %64, label %63

63:                                               ; preds = %47
  store i32 0, ptr %3, align 4
  store i32 1, ptr %7, align 4
  br label %162

64:                                               ; preds = %47
  br label %155

65:                                               ; preds = %41
  %66 = load ptr, ptr %5, align 8, !tbaa !20
  %67 = getelementptr inbounds nuw %struct.ossl_param_st, ptr %66, i32 0, i32 0
  %68 = load ptr, ptr %67, align 8, !tbaa !43
  %69 = call i32 @strcmp(ptr noundef %68, ptr noundef @.str.13) #8
  %70 = icmp eq i32 %69, 0
  br i1 %70, label %71, label %94

71:                                               ; preds = %65
  %72 = load ptr, ptr %6, align 8, !tbaa !35
  %73 = getelementptr inbounds nuw %struct.object_st, ptr %72, i32 0, i32 3
  %74 = load ptr, ptr %73, align 8, !tbaa !41
  call void @CRYPTO_free(ptr noundef %74, ptr noundef @.str.3, i32 noundef 145)
  %75 = load ptr, ptr %5, align 8, !tbaa !20
  %76 = getelementptr inbounds nuw %struct.ossl_param_st, ptr %75, i32 0, i32 2
  %77 = load ptr, ptr %76, align 8, !tbaa !44
  %78 = load ptr, ptr %5, align 8, !tbaa !20
  %79 = getelementptr inbounds nuw %struct.ossl_param_st, ptr %78, i32 0, i32 3
  %80 = load i64, ptr %79, align 8, !tbaa !45
  %81 = call noalias ptr @CRYPTO_strndup(ptr noundef %77, i64 noundef %80, ptr noundef @.str.3, i32 noundef 147)
  %82 = load ptr, ptr %6, align 8, !tbaa !35
  %83 = getelementptr inbounds nuw %struct.object_st, ptr %82, i32 0, i32 3
  store ptr %81, ptr %83, align 8, !tbaa !41
  %84 = call i32 @test_ptr(ptr noundef @.str.3, i32 noundef 147, ptr noundef @.str.14, ptr noundef %81)
  %85 = icmp ne i32 %84, 0
  br i1 %85, label %87, label %86

86:                                               ; preds = %71
  store i32 0, ptr %3, align 4
  store i32 1, ptr %7, align 4
  br label %162

87:                                               ; preds = %71
  %88 = load ptr, ptr %6, align 8, !tbaa !35
  %89 = getelementptr inbounds nuw %struct.object_st, ptr %88, i32 0, i32 3
  %90 = load ptr, ptr %89, align 8, !tbaa !41
  %91 = call i64 @strlen(ptr noundef %90) #8
  %92 = load ptr, ptr %6, align 8, !tbaa !35
  %93 = getelementptr inbounds nuw %struct.object_st, ptr %92, i32 0, i32 4
  store i64 %91, ptr %93, align 8, !tbaa !46
  br label %154

94:                                               ; preds = %65
  %95 = load ptr, ptr %5, align 8, !tbaa !20
  %96 = getelementptr inbounds nuw %struct.ossl_param_st, ptr %95, i32 0, i32 0
  %97 = load ptr, ptr %96, align 8, !tbaa !43
  %98 = call i32 @strcmp(ptr noundef %97, ptr noundef @.str.15) #8
  %99 = icmp eq i32 %98, 0
  br i1 %99, label %100, label %134

100:                                              ; preds = %94
  call void @llvm.lifetime.start.p0(i64 8, ptr %8) #7
  %101 = load ptr, ptr %5, align 8, !tbaa !20
  %102 = getelementptr inbounds nuw %struct.ossl_param_st, ptr %101, i32 0, i32 2
  %103 = load ptr, ptr %102, align 8, !tbaa !44
  %104 = load ptr, ptr %5, align 8, !tbaa !20
  %105 = getelementptr inbounds nuw %struct.ossl_param_st, ptr %104, i32 0, i32 3
  %106 = load i64, ptr %105, align 8, !tbaa !45
  %107 = call i64 @OPENSSL_strnlen(ptr noundef %103, i64 noundef %106)
  store i64 %107, ptr %8, align 8, !tbaa !47
  %108 = load i64, ptr %8, align 8, !tbaa !47
  %109 = call i32 @test_size_t_lt(ptr noundef @.str.3, i32 noundef 158, ptr noundef @.str.16, ptr noundef @.str.17, i64 noundef %108, i64 noundef 256)
  %110 = icmp ne i32 %109, 0
  br i1 %110, label %112, label %111

111:                                              ; preds = %100
  store i32 0, ptr %3, align 4
  store i32 1, ptr %7, align 4
  br label %131

112:                                              ; preds = %100
  %113 = load ptr, ptr %6, align 8, !tbaa !35
  %114 = getelementptr inbounds nuw %struct.object_st, ptr %113, i32 0, i32 5
  %115 = getelementptr inbounds [256 x i8], ptr %114, i64 0, i64 0
  %116 = load ptr, ptr %5, align 8, !tbaa !20
  %117 = getelementptr inbounds nuw %struct.ossl_param_st, ptr %116, i32 0, i32 2
  %118 = load ptr, ptr %117, align 8, !tbaa !44
  %119 = load i64, ptr %8, align 8, !tbaa !47
  %120 = call ptr @strncpy(ptr noundef %115, ptr noundef %118, i64 noundef %119) #7
  %121 = load ptr, ptr %6, align 8, !tbaa !35
  %122 = getelementptr inbounds nuw %struct.object_st, ptr %121, i32 0, i32 5
  %123 = load i64, ptr %8, align 8, !tbaa !47
  %124 = getelementptr inbounds nuw [256 x i8], ptr %122, i64 0, i64 %123
  store i8 0, ptr %124, align 1, !tbaa !33
  %125 = load ptr, ptr %6, align 8, !tbaa !35
  %126 = getelementptr inbounds nuw %struct.object_st, ptr %125, i32 0, i32 5
  %127 = getelementptr inbounds [256 x i8], ptr %126, i64 0, i64 0
  %128 = call i64 @strlen(ptr noundef %127) #8
  %129 = load ptr, ptr %6, align 8, !tbaa !35
  %130 = getelementptr inbounds nuw %struct.object_st, ptr %129, i32 0, i32 6
  store i64 %128, ptr %130, align 8, !tbaa !48
  store i32 0, ptr %7, align 4
  br label %131

131:                                              ; preds = %112, %111
  call void @llvm.lifetime.end.p0(i64 8, ptr %8) #7
  %132 = load i32, ptr %7, align 4
  switch i32 %132, label %162 [
    i32 0, label %133
  ]

133:                                              ; preds = %131
  br label %153

134:                                              ; preds = %94
  %135 = load ptr, ptr %5, align 8, !tbaa !20
  %136 = getelementptr inbounds nuw %struct.ossl_param_st, ptr %135, i32 0, i32 0
  %137 = load ptr, ptr %136, align 8, !tbaa !43
  %138 = call i32 @strcmp(ptr noundef %137, ptr noundef @.str.18) #8
  %139 = icmp eq i32 %138, 0
  br i1 %139, label %140, label %152

140:                                              ; preds = %134
  %141 = load ptr, ptr %5, align 8, !tbaa !20
  %142 = getelementptr inbounds nuw %struct.ossl_param_st, ptr %141, i32 0, i32 2
  %143 = load ptr, ptr %142, align 8, !tbaa !44
  %144 = load ptr, ptr %143, align 8, !tbaa !32
  %145 = load ptr, ptr %6, align 8, !tbaa !35
  %146 = getelementptr inbounds nuw %struct.object_st, ptr %145, i32 0, i32 7
  store ptr %144, ptr %146, align 8, !tbaa !42
  %147 = load ptr, ptr %5, align 8, !tbaa !20
  %148 = getelementptr inbounds nuw %struct.ossl_param_st, ptr %147, i32 0, i32 3
  %149 = load i64, ptr %148, align 8, !tbaa !45
  %150 = load ptr, ptr %6, align 8, !tbaa !35
  %151 = getelementptr inbounds nuw %struct.object_st, ptr %150, i32 0, i32 8
  store i64 %149, ptr %151, align 8, !tbaa !49
  br label %152

152:                                              ; preds = %140, %134
  br label %153

153:                                              ; preds = %152, %133
  br label %154

154:                                              ; preds = %153, %87
  br label %155

155:                                              ; preds = %154, %64
  br label %156

156:                                              ; preds = %155, %34
  br label %157

157:                                              ; preds = %156, %21
  br label %158

158:                                              ; preds = %157
  %159 = load ptr, ptr %5, align 8, !tbaa !20
  %160 = getelementptr inbounds nuw %struct.ossl_param_st, ptr %159, i32 1
  store ptr %160, ptr %5, align 8, !tbaa !20
  br label %10, !llvm.loop !50

161:                                              ; preds = %10
  store i32 1, ptr %3, align 4
  store i32 1, ptr %7, align 4
  br label %162

162:                                              ; preds = %161, %131, %86, %63
  call void @llvm.lifetime.end.p0(i64 8, ptr %6) #7
  %163 = load i32, ptr %3, align 4
  ret i32 %163
}