; Function Attrs: nounwind uwtable
define internal range(i32 0, 2) i32 @raw_set_params(ptr noundef %0, ptr noundef readonly captures(none) %1) #0 {
  %3 = getelementptr inbounds nuw i8, ptr %0, i64 24
  %4 = getelementptr inbounds nuw i8, ptr %0, i64 16
  %5 = load ptr, ptr %1, align 8, !tbaa !43
  %.not69 = icmp eq ptr %5, null
  br i1 %.not69, label %.critedge, label %sub_0.lr.ph

sub_0.lr.ph:                                      ; preds = %2
  %6 = getelementptr inbounds nuw i8, ptr %0, i64 304
  %7 = getelementptr inbounds nuw i8, ptr %0, i64 312
  %8 = getelementptr inbounds nuw i8, ptr %0, i64 40
  %9 = getelementptr inbounds nuw i8, ptr %0, i64 296
  %10 = getelementptr inbounds nuw i8, ptr %0, i64 32
  %11 = getelementptr inbounds nuw i8, ptr %0, i64 8
  br label %sub_0

sub_0:                                            ; preds = %sub_0.lr.ph, %.tail64.thread
  %12 = phi ptr [ %5, %sub_0.lr.ph ], [ %91, %.tail64.thread ]
  %.03970 = phi ptr [ %1, %sub_0.lr.ph ], [ %90, %.tail64.thread ]
  %13 = load i8, ptr %12, align 1
  %.not77 = icmp eq i8 %13, 112
  br i1 %.not77, label %sub_1, label %.tail64.thread

sub_1:                                            ; preds = %sub_0
  %14 = getelementptr inbounds nuw i8, ptr %12, i64 1
  %15 = load i8, ptr %14, align 1
  %.not78 = icmp eq i8 %15, 49
  br i1 %.not78, label %.tail, label %sub_146

.tail:                                            ; preds = %sub_1
  %16 = getelementptr inbounds nuw i8, ptr %12, i64 2
  %17 = load i8, ptr %16, align 1
  %18 = icmp eq i8 %17, 0
  br i1 %18, label %19, label %sub_146

19:                                               ; preds = %.tail
  %20 = getelementptr inbounds nuw i8, ptr %.03970, i64 16
  %21 = load ptr, ptr %20, align 8, !tbaa !23
  %22 = load i32, ptr %21, align 4, !tbaa !36
  store i32 %22, ptr %0, align 8, !tbaa !29
  br label %.tail64.thread

sub_146:                                          ; preds = %.tail, %sub_1
  %23 = getelementptr inbounds nuw i8, ptr %12, i64 1
  %24 = load i8, ptr %23, align 1
  %.not80 = icmp eq i8 %24, 50
  br i1 %.not80, label %.tail44, label %sub_151

.tail44:                                          ; preds = %sub_146
  %25 = getelementptr inbounds nuw i8, ptr %12, i64 2
  %26 = load i8, ptr %25, align 1
  %27 = icmp eq i8 %26, 0
  br i1 %27, label %28, label %sub_151

28:                                               ; preds = %.tail44
  %29 = getelementptr inbounds nuw i8, ptr %.03970, i64 16
  %30 = load ptr, ptr %29, align 8, !tbaa !23
  %31 = load double, ptr %30, align 8, !tbaa !37
  store double %31, ptr %11, align 8, !tbaa !32
  br label %.tail64.thread

sub_151:                                          ; preds = %.tail44, %sub_146
  %32 = getelementptr inbounds nuw i8, ptr %12, i64 1
  %33 = load i8, ptr %32, align 1
  %.not82 = icmp eq i8 %33, 51
  br i1 %.not82, label %.tail49, label %sub_156

.tail49:                                          ; preds = %sub_151
  %34 = getelementptr inbounds nuw i8, ptr %12, i64 2
  %35 = load i8, ptr %34, align 1
  %36 = icmp eq i8 %35, 0
  br i1 %36, label %37, label %sub_156

37:                                               ; preds = %.tail49
  %38 = load ptr, ptr %4, align 8, !tbaa !35
  tail call void @BN_free(ptr noundef %38) #7
  %39 = getelementptr inbounds nuw i8, ptr %.03970, i64 16
  %40 = load ptr, ptr %39, align 8, !tbaa !23
  %41 = getelementptr inbounds nuw i8, ptr %.03970, i64 24
  %42 = load i64, ptr %41, align 8, !tbaa !20
  %43 = trunc i64 %42 to i32
  %44 = tail call ptr @BN_native2bn(ptr noundef %40, i32 noundef %43, ptr noundef null) #7
  store ptr %44, ptr %4, align 8, !tbaa !35
  %45 = tail call i32 @test_ptr(ptr noundef nonnull @.str.3, i32 noundef 142, ptr noundef nonnull @.str.12, ptr noundef %44) #7
  %.not43 = icmp eq i32 %45, 0
  br i1 %.not43, label %.critedge, label %.tail64.thread

sub_156:                                          ; preds = %.tail49, %sub_151
  %46 = getelementptr inbounds nuw i8, ptr %12, i64 1
  %47 = load i8, ptr %46, align 1
  %.not84 = icmp eq i8 %47, 52
  br i1 %.not84, label %.tail54, label %sub_161

.tail54:                                          ; preds = %sub_156
  %48 = getelementptr inbounds nuw i8, ptr %12, i64 2
  %49 = load i8, ptr %48, align 1
  %50 = icmp eq i8 %49, 0
  br i1 %50, label %51, label %sub_161

51:                                               ; preds = %.tail54
  %52 = load ptr, ptr %3, align 8, !tbaa !33
  tail call void @CRYPTO_free(ptr noundef %52, ptr noundef nonnull @.str.3, i32 noundef 145) #7
  %53 = getelementptr inbounds nuw i8, ptr %.03970, i64 16
  %54 = load ptr, ptr %53, align 8, !tbaa !23
  %55 = getelementptr inbounds nuw i8, ptr %.03970, i64 24
  %56 = load i64, ptr %55, align 8, !tbaa !20
  %57 = tail call noalias ptr @CRYPTO_strndup(ptr noundef %54, i64 noundef %56, ptr noundef nonnull @.str.3, i32 noundef 147) #7
  store ptr %57, ptr %3, align 8, !tbaa !33
  %58 = tail call i32 @test_ptr(ptr noundef nonnull @.str.3, i32 noundef 147, ptr noundef nonnull @.str.14, ptr noundef %57) #7
  %.not42 = icmp eq i32 %58, 0
  br i1 %.not42, label %.critedge, label %59

59:                                               ; preds = %51
  %60 = load ptr, ptr %3, align 8, !tbaa !33
  %61 = tail call i64 @strlen(ptr noundef nonnull dereferenceable(1) %60) #8
  store i64 %61, ptr %10, align 8, !tbaa !44
  br label %.tail64.thread

sub_161:                                          ; preds = %.tail54, %sub_156
  %62 = getelementptr inbounds nuw i8, ptr %12, i64 1
  %63 = load i8, ptr %62, align 1
  %.not86 = icmp eq i8 %63, 53
  br i1 %.not86, label %.tail59, label %sub_166

.tail59:                                          ; preds = %sub_161
  %64 = getelementptr inbounds nuw i8, ptr %12, i64 2
  %65 = load i8, ptr %64, align 1
  %66 = icmp eq i8 %65, 0
  br i1 %66, label %67, label %sub_166

67:                                               ; preds = %.tail59
  %68 = getelementptr inbounds nuw i8, ptr %.03970, i64 16
  %69 = load ptr, ptr %68, align 8, !tbaa !23
  %70 = getelementptr inbounds nuw i8, ptr %.03970, i64 24
  %71 = load i64, ptr %70, align 8, !tbaa !20
  %72 = tail call i64 @OPENSSL_strnlen(ptr noundef %69, i64 noundef %71) #7
  %73 = tail call i32 @test_size_t_lt(ptr noundef nonnull @.str.3, i32 noundef 158, ptr noundef nonnull @.str.16, ptr noundef nonnull @.str.17, i64 noundef %72, i64 noundef 256) #7
  %.not41.not = icmp eq i32 %73, 0
  br i1 %.not41.not, label %.critedge, label %74

74:                                               ; preds = %67
  %75 = load ptr, ptr %68, align 8, !tbaa !23
  %76 = tail call ptr @strncpy(ptr noundef nonnull %8, ptr noundef %75, i64 noundef %72) #7
  %77 = getelementptr inbounds nuw [256 x i8], ptr %8, i64 0, i64 %72
  store i8 0, ptr %77, align 1, !tbaa !38
  %78 = tail call i64 @strlen(ptr noundef nonnull dereferenceable(1) %8) #8
  store i64 %78, ptr %9, align 8, !tbaa !45
  br label %.tail64.thread

sub_166:                                          ; preds = %.tail59, %sub_161
  %79 = getelementptr inbounds nuw i8, ptr %12, i64 1
  %80 = load i8, ptr %79, align 1
  %.not88 = icmp eq i8 %80, 54
  br i1 %.not88, label %.tail64, label %.tail64.thread

.tail64:                                          ; preds = %sub_166
  %81 = getelementptr inbounds nuw i8, ptr %12, i64 2
  %82 = load i8, ptr %81, align 1
  %83 = icmp eq i8 %82, 0
  br i1 %83, label %84, label %.tail64.thread

84:                                               ; preds = %.tail64
  %85 = getelementptr inbounds nuw i8, ptr %.03970, i64 16
  %86 = load ptr, ptr %85, align 8, !tbaa !23
  %87 = load ptr, ptr %86, align 8, !tbaa !24
  store ptr %87, ptr %6, align 8, !tbaa !34
  %88 = getelementptr inbounds nuw i8, ptr %.03970, i64 24
  %89 = load i64, ptr %88, align 8, !tbaa !20
  store i64 %89, ptr %7, align 8, !tbaa !46
  br label %.tail64.thread

.tail64.thread:                                   ; preds = %sub_0, %sub_166, %74, %19, %37, %84, %.tail64, %59, %28
  %90 = getelementptr inbounds nuw i8, ptr %.03970, i64 40
  %91 = load ptr, ptr %90, align 8, !tbaa !43
  %.not = icmp eq ptr %91, null
  br i1 %.not, label %.critedge, label %sub_0, !llvm.loop !47

.critedge:                                        ; preds = %37, %51, %.tail64.thread, %67, %2
  %.1 = phi i32 [ 1, %2 ], [ 0, %67 ], [ 1, %.tail64.thread ], [ 0, %51 ], [ 0, %37 ]
  ret i32 %.1
}